target datalayout = "e-m:e-p270:32:32-p271:32:32-p272:64:64-i64:64-i128:128-f80:128-n8:16:32:64-S128"
target triple = "x86_64-pc-linux-gnu"

%"class.std::__shared_count" = type { ptr }
%"class.cv::Size_" = type { i32, i32 }
%"class.cv::bioinspired::RetinaImpl" = type <{ %"class.cv::bioinspired::Retina", %"struct.cv::bioinspired::RetinaParameters", %"class.std::valarray", %"struct.cv::Ptr.4", i8, [7 x i8] }>
%"class.cv::bioinspired::Retina" = type { %"class.cv::Algorithm" }
%"class.cv::Algorithm" = type { ptr }
%"struct.cv::bioinspired::RetinaParameters" = type { %"struct.cv::bioinspired::RetinaParameters::OPLandIplParvoParameters", %"struct.cv::bioinspired::RetinaParameters::IplMagnoParameters" }
%"struct.cv::bioinspired::RetinaParameters::OPLandIplParvoParameters" = type { i8, i8, float, float, float, float, float, float, float }
%"struct.cv::bioinspired::RetinaParameters::IplMagnoParameters" = type { i8, float, float, float, float, float, float, float }
%"class.std::valarray" = type { i64, ptr }
%"struct.cv::Ptr.4" = type { %"class.std::shared_ptr.5" }
%"class.std::shared_ptr.5" = type { %"class.std::__shared_ptr.6" }
%"class.std::__shared_ptr.6" = type { ptr, %"class.std::__shared_count" }
%"class.cv::bioinspired::RetinaFilter" = type <{ i8, i8, [2 x i8], i32, i32, [4 x i8], %"class.std::valarray", %"class.std::valarray", %"class.cv::bioinspired::BasicRetinaFilter", %"class.cv::bioinspired::ParvoRetinaFilter", %"class.cv::bioinspired::MagnoRetinaFilter", %"class.cv::bioinspired::RetinaColor", ptr, i8, i8, i8, i8, float, i8, [7 x i8] }>
%"class.cv::bioinspired::BasicRetinaFilter" = type { %"class.cv::bioinspired::TemplateBuffer", %"class.std::valarray", i32, i32, %"class.std::valarray", %"class.std::valarray", %"class.std::valarray", float, float, float, float, float, float, float, float }
%"class.cv::bioinspired::TemplateBuffer" = type { ptr, %"class.std::valarray", i64, i64, i64, i64, i64 }
%"class.cv::bioinspired::ParvoRetinaFilter" = type { ptr, %"class.cv::bioinspired::BasicRetinaFilter", %"class.std::valarray", %"class.std::valarray", %"class.std::valarray", %"class.std::valarray", %"class.std::valarray", %"class.std::valarray", %"class.std::valarray", ptr, ptr }
%"class.cv::bioinspired::MagnoRetinaFilter" = type <{ ptr, %"class.cv::bioinspired::BasicRetinaFilter", %"class.std::valarray", %"class.std::valarray", %"class.std::valarray", %"class.std::valarray", %"class.std::valarray", %"class.std::valarray", %"class.std::valarray", %"class.std::valarray", ptr, ptr, float, [4 x i8] }>
%"class.cv::bioinspired::RetinaColor" = type <{ ptr, %"class.cv::bioinspired::BasicRetinaFilter", i32, i8, [3 x i8], float, [4 x i8], ptr, ptr, %"class.std::valarray.8", %"class.std::valarray", %"class.std::valarray", %"class.std::valarray", %"class.std::valarray", %"class.std::valarray", %"class.std::valarray", %"class.std::valarray", float, float, float, i8, [3 x i8] }>
%"class.std::valarray.8" = type { i64, ptr }

; Function Attrs: inlinehint mustprogress nounwind uwtable
define linkonce_odr hidden noundef i32 @_ZN2cv11bioinspired14TemplateBufferIfE9getNBrowsEv(ptr noundef nonnull align 8 dereferenceable(64) %0) #7 comdat align 2 {
  %2 = alloca ptr, align 8
  store ptr %0, ptr %2, align 8, !tbaa !198
  %3 = load ptr, ptr %2, align 8
  %4 = getelementptr inbounds nuw %"class.cv::bioinspired::TemplateBuffer", ptr %3, i32 0, i32 2
  %5 = load i64, ptr %4, align 8, !tbaa !200
  %6 = trunc i64 %5 to i32
  ret i32 %6
}

; Function Attrs: inlinehint mustprogress nounwind uwtable
define linkonce_odr hidden noundef i32 @_ZN2cv11bioinspired14TemplateBufferIfE12getNBcolumnsEv(ptr noundef nonnull align 8 dereferenceable(64) %0) #7 comdat align 2 {
  %2 = alloca ptr, align 8
  store ptr %0, ptr %2, align 8, !tbaa !198
  %3 = load ptr, ptr %2, align 8
  %4 = getelementptr inbounds nuw %"class.cv::bioinspired::TemplateBuffer", ptr %3, i32 0, i32 3
  %5 = load i64, ptr %4, align 8, !tbaa !199
  %6 = trunc i64 %5 to i32
  ret i32 %6
}

; Function Attrs: inlinehint mustprogress uwtable
define linkonce_odr hidden noundef i32 @_ZN2cv11bioinspired17BasicRetinaFilter9getNBrowsEv(ptr noundef nonnull align 8 dereferenceable(168) %0) #6 comdat align 2 {
  %2 = alloca ptr, align 8
  store ptr %0, ptr %2, align 8, !tbaa !196
  %3 = load ptr, ptr %2, align 8
  %4 = getelementptr inbounds nuw %"class.cv::bioinspired::BasicRetinaFilter", ptr %3, i32 0, i32 0
  %5 = call noundef i32 @_ZN2cv11bioinspired14TemplateBufferIfE9getNBrowsEv(ptr noundef nonnull align 8 dereferenceable(64) %4)
  ret i32 %5
}

; Function Attrs: inlinehint mustprogress uwtable
define linkonce_odr hidden noundef i32 @_ZN2cv11bioinspired17BasicRetinaFilter12getNBcolumnsEv(ptr noundef nonnull align 8 dereferenceable(168) %0) #6 comdat align 2 {
  %2 = alloca ptr, align 8
  store ptr %0, ptr %2, align 8, !tbaa !196
  %3 = load ptr, ptr %2, align 8
  %4 = getelementptr inbounds nuw %"class.cv::bioinspired::BasicRetinaFilter", ptr %3, i32 0, i32 0
  %5 = call noundef i32 @_ZN2cv11bioinspired14TemplateBufferIfE12getNBcolumnsEv(ptr noundef nonnull align 8 dereferenceable(64) %4)
  ret i32 %5
}

; Function Attrs: mustprogress nounwind uwtable
define linkonce_odr hidden noundef ptr @_ZNKSt12__shared_ptrIN2cv11bioinspired12RetinaFilterELN9__gnu_cxx12_Lock_policyE2EE3getEv(ptr noundef nonnull align 8 dereferenceable(16) %0) #9 comdat align 2 {
  %2 = alloca ptr, align 8
  store ptr %0, ptr %2, align 8, !tbaa !281
  %3 = load ptr, ptr %2, align 8
  %4 = getelementptr inbounds nuw %"class.std::__shared_ptr.6", ptr %3, i32 0, i32 0
  %5 = load ptr, ptr %4, align 8, !tbaa !283
  ret ptr %5
}

; Function Attrs: inlinehint mustprogress nounwind uwtable
define linkonce_odr hidden void @_ZN2cv5Size_IiEC2Eii(ptr noundef nonnull align 4 dereferenceable(8) %0, i32 noundef %1, i32 noundef %2) unnamed_addr #7 comdat align 2 {
  %4 = alloca ptr, align 8
  %5 = alloca i32, align 4
  %6 = alloca i32, align 4
  store ptr %0, ptr %4, align 8, !tbaa !3
  store i32 %1, ptr %5, align 4, !tbaa !14
  store i32 %2, ptr %6, align 4, !tbaa !14
  %7 = load ptr, ptr %4, align 8
  %8 = getelementptr inbounds nuw %"class.cv::Size_", ptr %7, i32 0, i32 0
  %9 = load i32, ptr %5, align 4, !tbaa !14
  store i32 %9, ptr %8, align 4, !tbaa !56
  %10 = getelementptr inbounds nuw %"class.cv::Size_", ptr %7, i32 0, i32 1
  %11 = load i32, ptr %6, align 4, !tbaa !14
  store i32 %11, ptr %10, align 4, !tbaa !54
  ret void
}

; Function Attrs: inlinehint mustprogress uwtable
define linkonce_odr hidden noundef i32 @_ZN2cv11bioinspired12RetinaFilter15getOutputNBrowsEv(ptr noundef nonnull align 8 dereferenceable(1217) %0) #6 comdat align 2 {
  %2 = alloca ptr, align 8
  store ptr %0, ptr %2, align 8, !tbaa !61
  %3 = load ptr, ptr %2, align 8
  %4 = getelementptr inbounds nuw %"class.cv::bioinspired::RetinaFilter", ptr %3, i32 0, i32 8
  %5 = call noundef i32 @_ZN2cv11bioinspired17BasicRetinaFilter9getNBrowsEv(ptr noundef nonnull align 8 dereferenceable(168) %4)
  ret i32 %5
}

; Function Attrs: inlinehint mustprogress uwtable
define linkonce_odr hidden noundef i32 @_ZN2cv11bioinspired12RetinaFilter18getOutputNBcolumnsEv(ptr noundef nonnull align 8 dereferenceable(1217) %0) #6 comdat align 2 {
  %2 = alloca ptr, align 8
  store ptr %0, ptr %2, align 8, !tbaa !61
  %3 = load ptr, ptr %2, align 8
  %4 = getelementptr inbounds nuw %"class.cv::bioinspired::RetinaFilter", ptr %3, i32 0, i32 8
  %5 = call noundef i32 @_ZN2cv11bioinspired17BasicRetinaFilter12getNBcolumnsEv(ptr noundef nonnull align 8 dereferenceable(168) %4)
  ret i32 %5
}

; Function Attrs: mustprogress nounwind uwtable
define linkonce_odr hidden noundef ptr @_ZNK2cv3PtrINS_11bioinspired12RetinaFilterEEptEv(ptr noundef nonnull align 8 dereferenceable(16) %0) #9 comdat align 2 {
  %2 = alloca ptr, align 8
  store ptr %0, ptr %2, align 8, !tbaa !39
  %3 = load ptr, ptr %2, align 8
  %4 = call noundef ptr @_ZNKSt12__shared_ptrIN2cv11bioinspired12RetinaFilterELN9__gnu_cxx12_Lock_policyE2EE3getEv(ptr noundef nonnull align 8 dereferenceable(16) %3) #3
  ret ptr %4
}

; Function Attrs: mustprogress uwtable
define hidden i64 @_ZN2cv11bioinspired10RetinaImpl13getOutputSizeEv(ptr noundef nonnull align 8 dereferenceable(112) %0) unnamed_addr #4 align 2 {
  %2 = alloca %"class.cv::Size_", align 4
  %3 = alloca ptr, align 8
  store ptr %0, ptr %3, align 8, !tbaa !24
  %4 = load ptr, ptr %3, align 8
  %5 = getelementptr inbounds nuw %"class.cv::bioinspired::RetinaImpl", ptr %4, i32 0, i32 3
  %6 = call noundef ptr @_ZNK2cv3PtrINS_11bioinspired12RetinaFilterEEptEv(ptr noundef nonnull align 8 dereferenceable(16) %5) #3
  %7 = call noundef i32 @_ZN2cv11bioinspired12RetinaFilter18getOutputNBcolumnsEv(ptr noundef nonnull align 8 dereferenceable(1217) %6)
  %8 = getelementptr inbounds nuw %"class.cv::bioinspired::RetinaImpl", ptr %4, i32 0, i32 3
  %9 = call noundef ptr @_ZNK2cv3PtrINS_11bioinspired12RetinaFilterEEptEv(ptr noundef nonnull align 8 dereferenceable(16) %8) #3
  %10 = call noundef i32 @_ZN2cv11bioinspired12RetinaFilter15getOutputNBrowsEv(ptr noundef nonnull align 8 dereferenceable(1217) %9)
  call void @_ZN2cv5Size_IiEC2Eii(ptr noundef nonnull align 4 dereferenceable(8) %2, i32 noundef %7, i32 noundef %10)
  %11 = load i64, ptr %2, align 4
  ret i64 %11
}