; Function Attrs: mustprogress nofree norecurse nosync nounwind willreturn memory(read, inaccessiblemem: none) uwtable
define hidden i64 @_ZN2cv11bioinspired10RetinaImpl13getOutputSizeEv(ptr noundef nonnull readonly align 8 captures(none) dereferenceable(112) %0) unnamed_addr #8 align 2 {
  %2 = getelementptr inbounds nuw i8, ptr %0, i64 88
  %3 = load ptr, ptr %2, align 8, !tbaa !70
  %4 = getelementptr inbounds nuw i8, ptr %3, i64 80
  %5 = load i64, ptr %4, align 8, !tbaa !86
  %6 = getelementptr inbounds nuw i8, ptr %3, i64 72
  %7 = load i64, ptr %6, align 8, !tbaa !87
  %.sroa.2.0.insert.ext = shl i64 %7, 32
  %.sroa.0.0.insert.ext = and i64 %5, 4294967295
  %.sroa.0.0.insert.insert = or disjoint i64 %.sroa.2.0.insert.ext, %.sroa.0.0.insert.ext
  ret i64 %.sroa.0.0.insert.insert
}